target datalayout = "e-m:e-p270:32:32-p271:32:32-p272:64:64-i64:64-i128:128-f80:128-n8:16:32:64-S128"
target triple = "x86_64-unknown-linux-gnu"

%"class.icu_75::SortKeyByteSink" = type <{ %"class.icu_75::ByteSink", ptr, i32, i32, i32, [4 x i8] }>
%"class.icu_75::ByteSink" = type { ptr }

; Function Attrs: mustprogress uwtable
define void @_ZN6icu_7520CollationKeyByteSink20AppendBeyondCapacityEPKcii(ptr noundef nonnull align 8 dereferenceable(40) %this, ptr noundef %bytes, i32 noundef %n, i32 noundef %length) unnamed_addr #1 align 2 {
entry:
  %this.addr = alloca ptr, align 8
  %bytes.addr = alloca ptr, align 8
  %n.addr = alloca i32, align 4
  %length.addr = alloca i32, align 4
  store ptr %this, ptr %this.addr, align 8
  store ptr %bytes, ptr %bytes.addr, align 8
  store i32 %n, ptr %n.addr, align 4
  store i32 %length, ptr %length.addr, align 4
  %this1 = load ptr, ptr %this.addr, align 8
  %0 = load i32, ptr %n.addr, align 4
  %1 = load i32, ptr %length.addr, align 4
  %vtable = load ptr, ptr %this1, align 8
  %vfn = getelementptr inbounds ptr, ptr %vtable, i64 6
  %2 = load ptr, ptr %vfn, align 8
  %call = call noundef signext i8 %2(ptr noundef nonnull align 8 dereferenceable(40) %this1, i32 noundef %0, i32 noundef %1)
  %tobool = icmp ne i8 %call, 0
  br i1 %tobool, label %if.then, label %if.end

if.then:                                          ; preds = %entry
  br label %do.body

do.body:                                          ; preds = %if.then
  %buffer_ = getelementptr inbounds %"class.icu_75::SortKeyByteSink", ptr %this1, i32 0, i32 1
  %3 = load ptr, ptr %buffer_, align 8
  %4 = load i32, ptr %length.addr, align 4
  %idx.ext = sext i32 %4 to i64
  %add.ptr = getelementptr inbounds i8, ptr %3, i64 %idx.ext
  %5 = load ptr, ptr %bytes.addr, align 8
  %6 = load i32, ptr %n.addr, align 4
  %conv = sext i32 %6 to i64
  call void @llvm.memcpy.p0.p0.i64(ptr align 1 %add.ptr, ptr align 1 %5, i64 %conv, i1 false)
  br label %do.end

do.end:                                           ; preds = %do.body
  br label %if.end

if.end:                                           ; preds = %do.end, %entry
  ret void
}