; Function Attrs: mustprogress uwtable
define void @_ZN6icu_7520CollationKeyByteSink20AppendBeyondCapacityEPKcii(ptr noundef nonnull align 8 dereferenceable(40) %this, ptr nocapture noundef readonly %bytes, i32 noundef %n, i32 noundef %length) unnamed_addr #1 align 2 {
entry:
  %vtable = load ptr, ptr %this, align 8
  %vfn = getelementptr inbounds i8, ptr %vtable, i64 48
  %0 = load ptr, ptr %vfn, align 8
  %call = tail call noundef signext i8 %0(ptr noundef nonnull align 8 dereferenceable(40) %this, i32 noundef %n, i32 noundef %length)
  %tobool.not = icmp eq i8 %call, 0
  br i1 %tobool.not, label %if.end, label %do.body

do.body:                                          ; preds = %entry
  %buffer_ = getelementptr inbounds i8, ptr %this, i64 8
  %1 = load ptr, ptr %buffer_, align 8
  %idx.ext = sext i32 %length to i64
  %add.ptr = getelementptr inbounds i8, ptr %1, i64 %idx.ext
  %conv = sext i32 %n to i64
  tail call void @llvm.memcpy.p0.p0.i64(ptr align 1 %add.ptr, ptr align 1 %bytes, i64 %conv, i1 false)
  br label %if.end

if.end:                                           ; preds = %do.body, %entry
  ret void
}